target datalayout = "e-m:e-p270:32:32-p271:32:32-p272:64:64-i64:64-i128:128-f80:128-n8:16:32:64-S128"
target triple = "x86_64-pc-linux-gnu"

%struct.quic_port_st = type { ptr, %struct.anon, ptr, ptr, ptr, ptr, ptr, ptr, %struct.ossl_list_st_ch, %struct.ossl_list_st_incoming_ch, ptr, ptr, ptr, ptr, i8, i8, i16, ptr }
%struct.anon = type { ptr, ptr }
%struct.ossl_list_st_ch = type { ptr, ptr, i64 }
%struct.ossl_list_st_incoming_ch = type { ptr, ptr, i64 }
%struct.OSSL_TIME = type { i64 }
%struct.quic_channel_st = type { ptr, %struct.anon.0, %struct.anon.1, ptr, ptr, ptr, ptr, ptr, ptr, ptr, i64, %union.bio_addr_st, ptr, ptr, ptr, %struct.quic_txfc_st, %struct.quic_rxfc_st, [3 x %struct.quic_rxfc_st], %struct.quic_rxfc_st, %struct.quic_rxfc_st, %struct.quic_stream_map_st, %struct.ossl_statm_st, ptr, ptr, ptr, ptr, ptr, ptr, ptr, ptr, [3 x ptr], [3 x ptr], %struct.quic_conn_id_st, %struct.quic_conn_id_st, %struct.quic_conn_id_st, %struct.quic_conn_id_st, %struct.quic_conn_id_st, %struct.quic_conn_id_st, i64, i64, i64, i64, i64, i64, i64, i64, i64, i64, i8, i16, ptr, i64, i64, i64, i64, i64, i64, i64, i64, i64, i64, i64, i64, i64, %struct.quic_terminate_cause_st, %struct.OSSL_TIME, %struct.OSSL_TIME, %struct.OSSL_TIME, %struct.OSSL_TIME, %struct.OSSL_TIME, i64, i64, i64, ptr, ptr, i64, ptr }
%struct.anon.0 = type { ptr, ptr }
%struct.anon.1 = type { ptr, ptr }
%union.bio_addr_st = type { %struct.sockaddr_in6, [84 x i8] }
%struct.sockaddr_in6 = type { i16, i16, i32, %struct.in6_addr, i32 }
%struct.in6_addr = type { %union.anon }
%union.anon = type { [4 x i32] }
%struct.quic_txfc_st = type { ptr, i64, i64, i8 }
%struct.quic_rxfc_st = type { i64, i64, i64, i64, i64, i64, i64, %struct.OSSL_TIME, ptr, ptr, ptr, i8, i8, i8, i8 }
%struct.quic_stream_map_st = type { ptr, %struct.quic_stream_list_node_st, %struct.quic_stream_list_node_st, %struct.quic_stream_list_node_st, i64, i64, i64, i64, i64, ptr, ptr, ptr, ptr, ptr, i32 }
%struct.quic_stream_list_node_st = type { ptr, ptr }
%struct.ossl_statm_st = type { %struct.OSSL_TIME, %struct.OSSL_TIME, %struct.OSSL_TIME, %struct.OSSL_TIME, i8 }
%struct.quic_conn_id_st = type { i8, [20 x i8] }
%struct.quic_terminate_cause_st = type { i64, i64, ptr, i64, i8 }

; Function Attrs: inlinehint nounwind uwtable
define internal void @ossl_list_incoming_ch_remove(ptr noundef %0, ptr noundef %1) #3 {
  %3 = alloca ptr, align 8
  %4 = alloca ptr, align 8
  store ptr %0, ptr %3, align 8, !tbaa !60
  store ptr %1, ptr %4, align 8, !tbaa !67
  %5 = load ptr, ptr %3, align 8, !tbaa !60
  %6 = getelementptr inbounds nuw %struct.ossl_list_st_incoming_ch, ptr %5, i32 0, i32 0
  %7 = load ptr, ptr %6, align 8, !tbaa !146
  %8 = load ptr, ptr %4, align 8, !tbaa !67
  %9 = icmp eq ptr %7, %8
  br i1 %9, label %10, label %17

10:                                               ; preds = %2
  %11 = load ptr, ptr %4, align 8, !tbaa !67
  %12 = getelementptr inbounds nuw %struct.quic_channel_st, ptr %11, i32 0, i32 2
  %13 = getelementptr inbounds nuw %struct.anon.1, ptr %12, i32 0, i32 0
  %14 = load ptr, ptr %13, align 8, !tbaa !147
  %15 = load ptr, ptr %3, align 8, !tbaa !60
  %16 = getelementptr inbounds nuw %struct.ossl_list_st_incoming_ch, ptr %15, i32 0, i32 0
  store ptr %14, ptr %16, align 8, !tbaa !146
  br label %17

17:                                               ; preds = %10, %2
  %18 = load ptr, ptr %3, align 8, !tbaa !60
  %19 = getelementptr inbounds nuw %struct.ossl_list_st_incoming_ch, ptr %18, i32 0, i32 1
  %20 = load ptr, ptr %19, align 8, !tbaa !148
  %21 = load ptr, ptr %4, align 8, !tbaa !67
  %22 = icmp eq ptr %20, %21
  br i1 %22, label %23, label %30

23:                                               ; preds = %17
  %24 = load ptr, ptr %4, align 8, !tbaa !67
  %25 = getelementptr inbounds nuw %struct.quic_channel_st, ptr %24, i32 0, i32 2
  %26 = getelementptr inbounds nuw %struct.anon.1, ptr %25, i32 0, i32 1
  %27 = load ptr, ptr %26, align 8, !tbaa !149
  %28 = load ptr, ptr %3, align 8, !tbaa !60
  %29 = getelementptr inbounds nuw %struct.ossl_list_st_incoming_ch, ptr %28, i32 0, i32 1
  store ptr %27, ptr %29, align 8, !tbaa !148
  br label %30

30:                                               ; preds = %23, %17
  %31 = load ptr, ptr %4, align 8, !tbaa !67
  %32 = getelementptr inbounds nuw %struct.quic_channel_st, ptr %31, i32 0, i32 2
  %33 = getelementptr inbounds nuw %struct.anon.1, ptr %32, i32 0, i32 1
  %34 = load ptr, ptr %33, align 8, !tbaa !149
  %35 = icmp ne ptr %34, null
  br i1 %35, label %36, label %47

36:                                               ; preds = %30
  %37 = load ptr, ptr %4, align 8, !tbaa !67
  %38 = getelementptr inbounds nuw %struct.quic_channel_st, ptr %37, i32 0, i32 2
  %39 = getelementptr inbounds nuw %struct.anon.1, ptr %38, i32 0, i32 0
  %40 = load ptr, ptr %39, align 8, !tbaa !147
  %41 = load ptr, ptr %4, align 8, !tbaa !67
  %42 = getelementptr inbounds nuw %struct.quic_channel_st, ptr %41, i32 0, i32 2
  %43 = getelementptr inbounds nuw %struct.anon.1, ptr %42, i32 0, i32 1
  %44 = load ptr, ptr %43, align 8, !tbaa !149
  %45 = getelementptr inbounds nuw %struct.quic_channel_st, ptr %44, i32 0, i32 2
  %46 = getelementptr inbounds nuw %struct.anon.1, ptr %45, i32 0, i32 0
  store ptr %40, ptr %46, align 8, !tbaa !147
  br label %47

47:                                               ; preds = %36, %30
  %48 = load ptr, ptr %4, align 8, !tbaa !67
  %49 = getelementptr inbounds nuw %struct.quic_channel_st, ptr %48, i32 0, i32 2
  %50 = getelementptr inbounds nuw %struct.anon.1, ptr %49, i32 0, i32 0
  %51 = load ptr, ptr %50, align 8, !tbaa !147
  %52 = icmp ne ptr %51, null
  br i1 %52, label %53, label %64

53:                                               ; preds = %47
  %54 = load ptr, ptr %4, align 8, !tbaa !67
  %55 = getelementptr inbounds nuw %struct.quic_channel_st, ptr %54, i32 0, i32 2
  %56 = getelementptr inbounds nuw %struct.anon.1, ptr %55, i32 0, i32 1
  %57 = load ptr, ptr %56, align 8, !tbaa !149
  %58 = load ptr, ptr %4, align 8, !tbaa !67
  %59 = getelementptr inbounds nuw %struct.quic_channel_st, ptr %58, i32 0, i32 2
  %60 = getelementptr inbounds nuw %struct.anon.1, ptr %59, i32 0, i32 0
  %61 = load ptr, ptr %60, align 8, !tbaa !147
  %62 = getelementptr inbounds nuw %struct.quic_channel_st, ptr %61, i32 0, i32 2
  %63 = getelementptr inbounds nuw %struct.anon.1, ptr %62, i32 0, i32 1
  store ptr %57, ptr %63, align 8, !tbaa !149
  br label %64

64:                                               ; preds = %53, %47
  %65 = load ptr, ptr %3, align 8, !tbaa !60
  %66 = getelementptr inbounds nuw %struct.ossl_list_st_incoming_ch, ptr %65, i32 0, i32 2
  %67 = load i64, ptr %66, align 8, !tbaa !62
  %68 = add i64 %67, -1
  store i64 %68, ptr %66, align 8, !tbaa !62
  %69 = load ptr, ptr %4, align 8, !tbaa !67
  %70 = getelementptr inbounds nuw %struct.quic_channel_st, ptr %69, i32 0, i32 2
  call void @llvm.memset.p0.i64(ptr align 8 %70, i8 0, i64 16, i1 false)
  ret void
}

; Function Attrs: inlinehint nounwind uwtable
define internal ptr @ossl_list_incoming_ch_head(ptr noundef %0) #3 {
  %2 = alloca ptr, align 8
  store ptr %0, ptr %2, align 8, !tbaa !60
  %3 = load ptr, ptr %2, align 8, !tbaa !60
  %4 = getelementptr inbounds nuw %struct.ossl_list_st_incoming_ch, ptr %3, i32 0, i32 0
  %5 = load ptr, ptr %4, align 8, !tbaa !146
  ret ptr %5
}

; Function Attrs: nounwind uwtable
define ptr @ossl_quic_port_pop_incoming(ptr noundef %0) #0 {
  %2 = alloca ptr, align 8
  %3 = alloca ptr, align 8
  %4 = alloca ptr, align 8
  %5 = alloca i32, align 4
  store ptr %0, ptr %3, align 8, !tbaa !8
  call void @llvm.lifetime.start.p0(i64 8, ptr %4) #8
  %6 = load ptr, ptr %3, align 8, !tbaa !8
  %7 = getelementptr inbounds nuw %struct.quic_port_st, ptr %6, i32 0, i32 9
  %8 = call ptr @ossl_list_incoming_ch_head(ptr noundef %7)
  store ptr %8, ptr %4, align 8, !tbaa !67
  %9 = load ptr, ptr %4, align 8, !tbaa !67
  %10 = icmp eq ptr %9, null
  br i1 %10, label %11, label %12

11:                                               ; preds = %1
  store ptr null, ptr %2, align 8
  store i32 1, ptr %5, align 4
  br label %17

12:                                               ; preds = %1
  %13 = load ptr, ptr %3, align 8, !tbaa !8
  %14 = getelementptr inbounds nuw %struct.quic_port_st, ptr %13, i32 0, i32 9
  %15 = load ptr, ptr %4, align 8, !tbaa !67
  call void @ossl_list_incoming_ch_remove(ptr noundef %14, ptr noundef %15)
  %16 = load ptr, ptr %4, align 8, !tbaa !67
  store ptr %16, ptr %2, align 8
  store i32 1, ptr %5, align 4
  br label %17

17:                                               ; preds = %12, %11
  call void @llvm.lifetime.end.p0(i64 8, ptr %4) #8
  %18 = load ptr, ptr %2, align 8
  ret ptr %18
}