; Function Attrs: mustprogress nofree norecurse nosync nounwind willreturn memory(readwrite, inaccessiblemem: none) uwtable
define ptr @ossl_quic_port_pop_incoming(ptr noundef captures(none) %0) local_unnamed_addr #4 {
  %2 = getelementptr inbounds nuw i8, ptr %0, i64 96
  %.val = load ptr, ptr %2, align 8, !tbaa !186
  %3 = icmp eq ptr %.val, null
  br i1 %3, label %21, label %4

4:                                                ; preds = %1
  %5 = getelementptr inbounds nuw i8, ptr %.val, i64 24
  %6 = load ptr, ptr %5, align 8, !tbaa !187
  store ptr %6, ptr %2, align 8, !tbaa !186
  %7 = getelementptr inbounds nuw i8, ptr %0, i64 104
  %8 = load ptr, ptr %7, align 8, !tbaa !188
  %9 = icmp eq ptr %8, %.val
  %10 = getelementptr inbounds nuw i8, ptr %.val, i64 32
  %11 = load ptr, ptr %10, align 8, !tbaa !189
  br i1 %9, label %12, label %._crit_edge.i

12:                                               ; preds = %4
  store ptr %11, ptr %7, align 8, !tbaa !188
  br label %._crit_edge.i

._crit_edge.i:                                    ; preds = %12, %4
  %.not.i = icmp eq ptr %11, null
  br i1 %.not.i, label %15, label %13

13:                                               ; preds = %._crit_edge.i
  %14 = getelementptr inbounds nuw i8, ptr %11, i64 24
  store ptr %6, ptr %14, align 8, !tbaa !187
  br label %15

15:                                               ; preds = %13, %._crit_edge.i
  %.not18.i = icmp eq ptr %6, null
  br i1 %.not18.i, label %ossl_list_incoming_ch_remove.exit, label %16

16:                                               ; preds = %15
  %17 = getelementptr inbounds nuw i8, ptr %6, i64 32
  store ptr %11, ptr %17, align 8, !tbaa !189
  br label %ossl_list_incoming_ch_remove.exit

ossl_list_incoming_ch_remove.exit:                ; preds = %15, %16
  %18 = getelementptr inbounds nuw i8, ptr %0, i64 112
  %19 = load i64, ptr %18, align 8, !tbaa !57
  %20 = add i64 %19, -1
  store i64 %20, ptr %18, align 8, !tbaa !57
  tail call void @llvm.memset.p0.i64(ptr noundef nonnull align 8 dereferenceable(16) %5, i8 0, i64 16, i1 false)
  br label %21

21:                                               ; preds = %1, %ossl_list_incoming_ch_remove.exit
  ret ptr %.val
}